target datalayout = "e-m:e-p270:32:32-p271:32:32-p272:64:64-i64:64-i128:128-f80:128-n8:16:32:64-S128"
target triple = "x86_64-pc-linux-gnu"

%struct.XML_Memory_Handling_Suite = type { ptr, ptr, ptr }
%struct.XML_ParserStruct = type { ptr, ptr, ptr, %struct.XML_Memory_Handling_Suite, ptr, ptr, ptr, i64, ptr, i64, i8, i32, ptr, ptr, ptr, ptr, ptr, ptr, ptr, ptr, ptr, ptr, ptr, ptr, ptr, ptr, ptr, ptr, ptr, ptr, ptr, ptr, ptr, ptr, ptr, ptr, ptr, ptr, %struct.INIT_ENCODING, ptr, ptr, i8, i8, ptr, ptr, ptr, ptr, %struct.prolog_state, ptr, i32, ptr, ptr, ptr, ptr, ptr, i8, i32, ptr, ptr, ptr, ptr, ptr, ptr, ptr, ptr, ptr, i8, i8, ptr, ptr, ptr, ptr, ptr, ptr, i32, i32, i32, ptr, ptr, i64, i8, %struct.position, %struct.STRING_POOL, %struct.STRING_POOL, ptr, i32, i8, ptr, %struct.XML_ParsingStatus, i64 }
%struct.INIT_ENCODING = type { %struct.encoding, ptr }
%struct.encoding = type { [3 x ptr], [2 x ptr], ptr, ptr, ptr, ptr, ptr, ptr, ptr, ptr, ptr, ptr, i32, i8, i8 }
%struct.prolog_state = type { ptr, i32, i32 }
%struct.position = type { i64, i64 }
%struct.STRING_POOL = type { ptr, ptr, ptr, ptr, ptr, ptr }
%struct.XML_ParsingStatus = type { i32, i8 }

; Function Attrs: nounwind uwtable
define dso_local i32 @XML_SetHashSalt(ptr noundef %0, i64 noundef %1) #0 {
  %3 = alloca i32, align 4
  %4 = alloca ptr, align 8
  %5 = alloca i64, align 8
  store ptr %0, ptr %4, align 8, !tbaa !13
  store i64 %1, ptr %5, align 8, !tbaa !161
  %6 = load ptr, ptr %4, align 8, !tbaa !13
  %7 = icmp eq ptr %6, null
  br i1 %7, label %8, label %9

8:                                                ; preds = %2
  store i32 0, ptr %3, align 4
  br label %37

9:                                                ; preds = %2
  %10 = load ptr, ptr %4, align 8, !tbaa !13
  %11 = getelementptr inbounds nuw %struct.XML_ParserStruct, ptr %10, i32 0, i32 87
  %12 = load ptr, ptr %11, align 8, !tbaa !57
  %13 = icmp ne ptr %12, null
  br i1 %13, label %14, label %20

14:                                               ; preds = %9
  %15 = load ptr, ptr %4, align 8, !tbaa !13
  %16 = getelementptr inbounds nuw %struct.XML_ParserStruct, ptr %15, i32 0, i32 87
  %17 = load ptr, ptr %16, align 8, !tbaa !57
  %18 = load i64, ptr %5, align 8, !tbaa !161
  %19 = call i32 @XML_SetHashSalt(ptr noundef %17, i64 noundef %18)
  store i32 %19, ptr %3, align 4
  br label %37

20:                                               ; preds = %9
  %21 = load ptr, ptr %4, align 8, !tbaa !13
  %22 = getelementptr inbounds nuw %struct.XML_ParserStruct, ptr %21, i32 0, i32 88
  %23 = getelementptr inbounds nuw %struct.XML_ParsingStatus, ptr %22, i32 0, i32 0
  %24 = load i32, ptr %23, align 8, !tbaa !140
  %25 = icmp eq i32 %24, 1
  br i1 %25, label %32, label %26

26:                                               ; preds = %20
  %27 = load ptr, ptr %4, align 8, !tbaa !13
  %28 = getelementptr inbounds nuw %struct.XML_ParserStruct, ptr %27, i32 0, i32 88
  %29 = getelementptr inbounds nuw %struct.XML_ParsingStatus, ptr %28, i32 0, i32 0
  %30 = load i32, ptr %29, align 8, !tbaa !140
  %31 = icmp eq i32 %30, 3
  br i1 %31, label %32, label %33

32:                                               ; preds = %26, %20
  store i32 0, ptr %3, align 4
  br label %37

33:                                               ; preds = %26
  %34 = load i64, ptr %5, align 8, !tbaa !161
  %35 = load ptr, ptr %4, align 8, !tbaa !13
  %36 = getelementptr inbounds nuw %struct.XML_ParserStruct, ptr %35, i32 0, i32 89
  store i64 %34, ptr %36, align 8, !tbaa !141
  store i32 1, ptr %3, align 4
  br label %37

37:                                               ; preds = %33, %32, %14, %8
  %38 = load i32, ptr %3, align 4
  ret i32 %38
}