; Function Attrs: nofree norecurse nosync nounwind memory(readwrite, inaccessiblemem: none) uwtable
define dso_local range(i32 0, 2) i32 @XML_SetHashSalt(ptr noundef %0, i64 noundef %1) local_unnamed_addr #6 {
  br label %tailrecurse

tailrecurse:                                      ; preds = %4, %2
  %.tr = phi ptr [ %0, %2 ], [ %6, %4 ]
  %3 = icmp eq ptr %.tr, null
  br i1 %3, label %.loopexit, label %4

4:                                                ; preds = %tailrecurse
  %5 = getelementptr inbounds nuw i8, ptr %.tr, i64 888
  %6 = load ptr, ptr %5, align 8, !tbaa !78
  %.not = icmp eq ptr %6, null
  br i1 %.not, label %7, label %tailrecurse

7:                                                ; preds = %4
  %8 = getelementptr inbounds nuw i8, ptr %.tr, i64 896
  %9 = load i32, ptr %8, align 8, !tbaa !79
  switch i32 %9, label %10 [
    i32 1, label %.loopexit
    i32 3, label %.loopexit
  ]

10:                                               ; preds = %7
  %11 = getelementptr inbounds nuw i8, ptr %.tr, i64 904
  store i64 %1, ptr %11, align 8, !tbaa !80
  br label %.loopexit

.loopexit:                                        ; preds = %tailrecurse, %7, %7, %10
  %.0 = phi i32 [ 1, %10 ], [ 0, %7 ], [ 0, %7 ], [ 0, %tailrecurse ]
  ret i32 %.0
}